target datalayout = "e-m:e-p270:32:32-p271:32:32-p272:64:64-i64:64-i128:128-f80:128-n8:16:32:64-S128"
target triple = "x86_64-pc-linux-gnu"

%struct.rb_data_type_struct = type { ptr, %struct.anon, ptr, ptr, i64 }
%struct.anon = type { ptr, ptr, ptr, ptr, [1 x ptr] }
%struct.strscanner = type { i64, i64, i64, i64, %struct.re_registers, i64, i8 }
%struct.re_registers = type { i32, i32, ptr, ptr }

@strscanner_type = internal constant %struct.rb_data_type_struct { ptr @.str.2, %struct.anon { ptr @strscan_mark, ptr @strscan_free, ptr @strscan_memsize, ptr null, [1 x ptr] zeroinitializer }, ptr null, ptr null, i64 1 }, align 8
@rb_eArgError = external global i64, align 8
@.str.66 = private unnamed_addr constant [35 x i8] c"uninitialized StringScanner object\00", align 1

; Function Attrs: inlinehint nounwind sspstrong willreturn memory(none) uwtable
define internal zeroext i1 @RB_NIL_P(i64 noundef %0) #7 {
  %2 = alloca i64, align 8
  store i64 %0, ptr %2, align 8, !tbaa !6
  %3 = load i64, ptr %2, align 8, !tbaa !6
  %4 = icmp eq i64 %3, 4
  ret i1 %4
}

; Function Attrs: nounwind sspstrong uwtable
define internal ptr @check_strscan(i64 noundef %0) #0 {
  %2 = alloca i64, align 8
  store i64 %0, ptr %2, align 8, !tbaa !6
  %3 = load i64, ptr %2, align 8, !tbaa !6
  %4 = call ptr @rb_check_typeddata(i64 noundef %3, ptr noundef @strscanner_type)
  ret ptr %4
}

; Function Attrs: nounwind sspstrong uwtable
define internal i64 @strscan_values_at(i32 noundef %0, ptr noundef %1, i64 noundef %2) #0 {
  %4 = alloca i64, align 8
  %5 = alloca i32, align 4
  %6 = alloca ptr, align 8
  %7 = alloca i64, align 8
  %8 = alloca ptr, align 8
  %9 = alloca i64, align 8
  %10 = alloca i64, align 8
  %11 = alloca i32, align 4
  store i32 %0, ptr %5, align 4, !tbaa !10
  store ptr %1, ptr %6, align 8, !tbaa !24
  store i64 %2, ptr %7, align 8, !tbaa !6
  call void @llvm.lifetime.start.p0(i64 8, ptr %8) #23
  call void @llvm.lifetime.start.p0(i64 8, ptr %9) #23
  call void @llvm.lifetime.start.p0(i64 8, ptr %10) #23
  br label %12

12:                                               ; preds = %3
  %13 = load i64, ptr %7, align 8, !tbaa !6
  %14 = call ptr @check_strscan(i64 noundef %13)
  store ptr %14, ptr %8, align 8, !tbaa !15
  %15 = load ptr, ptr %8, align 8, !tbaa !15
  %16 = getelementptr inbounds nuw %struct.strscanner, ptr %15, i32 0, i32 1
  %17 = load i64, ptr %16, align 8, !tbaa !22
  %18 = call zeroext i1 @RB_NIL_P(i64 noundef %17) #24
  br i1 %18, label %19, label %21

19:                                               ; preds = %12
  %20 = load i64, ptr @rb_eArgError, align 8, !tbaa !6
  call void (i64, ptr, ...) @rb_raise(i64 noundef %20, ptr noundef @.str.66) #27
  unreachable

21:                                               ; preds = %12
  br label %22

22:                                               ; preds = %21
  br label %23

23:                                               ; preds = %22
  %24 = load ptr, ptr %8, align 8, !tbaa !15
  %25 = getelementptr inbounds nuw %struct.strscanner, ptr %24, i32 0, i32 0
  %26 = load i64, ptr %25, align 8, !tbaa !17
  %27 = and i64 %26, 1
  %28 = icmp ne i64 %27, 0
  br i1 %28, label %30, label %29

29:                                               ; preds = %23
  store i64 4, ptr %4, align 8
  store i32 1, ptr %11, align 4
  br label %53

30:                                               ; preds = %23
  %31 = load i32, ptr %5, align 4, !tbaa !10
  %32 = sext i32 %31 to i64
  %33 = call i64 @rb_ary_new_capa(i64 noundef %32)
  store i64 %33, ptr %10, align 8, !tbaa !6
  store i64 0, ptr %9, align 8, !tbaa !6
  br label %34

34:                                               ; preds = %48, %30
  %35 = load i64, ptr %9, align 8, !tbaa !6
  %36 = load i32, ptr %5, align 4, !tbaa !10
  %37 = sext i32 %36 to i64
  %38 = icmp slt i64 %35, %37
  br i1 %38, label %39, label %51

39:                                               ; preds = %34
  %40 = load i64, ptr %10, align 8, !tbaa !6
  %41 = load i64, ptr %7, align 8, !tbaa !6
  %42 = load ptr, ptr %6, align 8, !tbaa !24
  %43 = load i64, ptr %9, align 8, !tbaa !6
  %44 = getelementptr inbounds i64, ptr %42, i64 %43
  %45 = load i64, ptr %44, align 8, !tbaa !6
  %46 = call i64 @strscan_aref(i64 noundef %41, i64 noundef %45)
  %47 = call i64 @rb_ary_push(i64 noundef %40, i64 noundef %46)
  br label %48

48:                                               ; preds = %39
  %49 = load i64, ptr %9, align 8, !tbaa !6
  %50 = add nsw i64 %49, 1
  store i64 %50, ptr %9, align 8, !tbaa !6
  br label %34, !llvm.loop !40

51:                                               ; preds = %34
  %52 = load i64, ptr %10, align 8, !tbaa !6
  store i64 %52, ptr %4, align 8
  store i32 1, ptr %11, align 4
  br label %53

53:                                               ; preds = %51, %29
  call void @llvm.lifetime.end.p0(i64 8, ptr %10) #23
  call void @llvm.lifetime.end.p0(i64 8, ptr %9) #23
  call void @llvm.lifetime.end.p0(i64 8, ptr %8) #23
  %54 = load i64, ptr %4, align 8
  ret i64 %54
}