; Function Attrs: nounwind sspstrong uwtable
define internal i64 @strscan_values_at(i32 noundef %0, ptr noundef readonly captures(none) %1, i64 noundef %2) #0 {
  %4 = tail call ptr @rb_check_typeddata(i64 noundef %2, ptr noundef nonnull @strscanner_type) #12
  %5 = getelementptr inbounds nuw i8, ptr %4, i64 8
  %6 = load i64, ptr %5, align 8, !tbaa !23
  %7 = icmp eq i64 %6, 4
  br i1 %7, label %8, label %10

8:                                                ; preds = %3
  %9 = load i64, ptr @rb_eArgError, align 8, !tbaa !10
  tail call void (i64, ptr, ...) @rb_raise(i64 noundef %9, ptr noundef nonnull @.str.66) #14
  unreachable

10:                                               ; preds = %3
  %11 = load i64, ptr %4, align 8, !tbaa !18
  %12 = and i64 %11, 1
  %.not = icmp eq i64 %12, 0
  br i1 %.not, label %.loopexit, label %13

13:                                               ; preds = %10
  %14 = sext i32 %0 to i64
  %15 = tail call i64 @rb_ary_new_capa(i64 noundef %14) #12
  %16 = icmp sgt i32 %0, 0
  br i1 %16, label %.lr.ph, label %.loopexit

.lr.ph:                                           ; preds = %13, %.lr.ph
  %.01213 = phi i64 [ %21, %.lr.ph ], [ 0, %13 ]
  %17 = getelementptr inbounds nuw i64, ptr %1, i64 %.01213
  %18 = load i64, ptr %17, align 8, !tbaa !10
  %19 = tail call i64 @strscan_aref(i64 noundef %2, i64 noundef %18)
  %20 = tail call i64 @rb_ary_push(i64 noundef %15, i64 noundef %19) #12
  %21 = add nuw nsw i64 %.01213, 1
  %exitcond.not = icmp eq i64 %21, %14
  br i1 %exitcond.not, label %.loopexit, label %.lr.ph, !llvm.loop !96

.loopexit:                                        ; preds = %.lr.ph, %13, %10
  %.0 = phi i64 [ 4, %10 ], [ %15, %13 ], [ %15, %.lr.ph ]
  ret i64 %.0
}